target datalayout = "e-m:e-p270:32:32-p271:32:32-p272:64:64-i64:64-i128:128-f80:128-n8:16:32:64-S128"
target triple = "x86_64-pc-linux-gnu"

%struct._zend_ini_entry = type { ptr, ptr, ptr, ptr, ptr, ptr, ptr, ptr, i32, i8, i8, i8 }

@registered_zend_ini_directives = internal global ptr null, align 8

; Function Attrs: nounwind uwtable
define i32 @zend_ini_register_displayer(ptr noundef %0, i32 noundef %1, ptr noundef %2) #0 {
  %4 = alloca ptr, align 8
  %5 = alloca ptr, align 8
  %6 = alloca ptr, align 8
  %7 = alloca i64, align 8
  %8 = alloca ptr, align 8
  %9 = alloca i32, align 4
  %10 = alloca ptr, align 8
  %11 = alloca i32, align 4
  %12 = alloca ptr, align 8
  %13 = alloca ptr, align 8
  store ptr %0, ptr %10, align 8
  store i32 %1, ptr %11, align 4
  store ptr %2, ptr %12, align 8
  %14 = load ptr, ptr @registered_zend_ini_directives, align 8
  %15 = load ptr, ptr %10, align 8
  %16 = load i32, ptr %11, align 4
  %17 = zext i32 %16 to i64
  store ptr %14, ptr %5, align 8
  store ptr %15, ptr %6, align 8
  store i64 %17, ptr %7, align 8
  %18 = load ptr, ptr %5, align 8
  %19 = load ptr, ptr %6, align 8
  %20 = load i64, ptr %7, align 8
  %21 = call ptr @zend_hash_str_find(ptr noundef %18, ptr noundef %19, i64 noundef %20) #13
  store ptr %21, ptr %8, align 8
  %22 = load ptr, ptr %8, align 8
  %23 = icmp ne ptr %22, null
  br i1 %23, label %24, label %30

24:                                               ; preds = %3
  %25 = load ptr, ptr %8, align 8
  %26 = load ptr, ptr %25, align 8
  %27 = icmp ne ptr %26, null
  call void @llvm.assume(i1 %27)
  %28 = load ptr, ptr %8, align 8
  %29 = load ptr, ptr %28, align 8
  store ptr %29, ptr %4, align 8
  br label %31

30:                                               ; preds = %3
  store ptr null, ptr %4, align 8
  br label %31

31:                                               ; preds = %30, %24
  %32 = load ptr, ptr %4, align 8
  store ptr %32, ptr %13, align 8
  %33 = load ptr, ptr %13, align 8
  %34 = icmp eq ptr %33, null
  br i1 %34, label %35, label %36

35:                                               ; preds = %31
  store i32 -1, ptr %9, align 4
  br label %40

36:                                               ; preds = %31
  %37 = load ptr, ptr %12, align 8
  %38 = load ptr, ptr %13, align 8
  %39 = getelementptr inbounds %struct._zend_ini_entry, ptr %38, i32 0, i32 7
  store ptr %37, ptr %39, align 8
  store i32 0, ptr %9, align 4
  br label %40

40:                                               ; preds = %36, %35
  %41 = load i32, ptr %9, align 4
  ret i32 %41
}