; Function Attrs: nounwind uwtable
define noundef i32 @zend_ini_register_displayer(ptr noundef %0, i32 noundef %1, ptr noundef %2) local_unnamed_addr #0 {
  %4 = load ptr, ptr @registered_zend_ini_directives, align 8
  %5 = zext i32 %1 to i64
  %6 = tail call ptr @zend_hash_str_find(ptr noundef %4, ptr noundef %0, i64 noundef %5) #20
  %.not = icmp eq ptr %6, null
  br i1 %.not, label %.thread, label %7

7:                                                ; preds = %3
  %8 = load ptr, ptr %6, align 8, !nonnull !5, !noundef !5
  %9 = getelementptr inbounds i8, ptr %8, i64 56
  store ptr %2, ptr %9, align 8
  br label %.thread

.thread:                                          ; preds = %3, %7
  %.012 = phi i32 [ 0, %7 ], [ -1, %3 ]
  ret i32 %.012
}